target datalayout = "e-m:e-p270:32:32-p271:32:32-p272:64:64-i64:64-i128:128-f80:128-n8:16:32:64-S128"
target triple = "x86_64-pc-linux-gnu"

%"class.std::__cxx11::basic_string" = type { %"struct.std::__cxx11::basic_string<char>::_Alloc_hider", i64, %union.anon }
%"struct.std::__cxx11::basic_string<char>::_Alloc_hider" = type { ptr }
%union.anon = type { i64, [8 x i8] }
%"class.llvm::raw_string_ostream" = type { %"class.llvm::raw_ostream", ptr }
%"class.llvm::raw_ostream" = type { ptr, i32, ptr, ptr, ptr, i8, i32 }

@_ZTVN4llvm18raw_string_ostreamE = external unnamed_addr constant { [15 x ptr] }, align 8
@_ZTVN4llvm11raw_ostreamE = external unnamed_addr constant { [15 x ptr] }, align 8

; Function Attrs: mustprogress nounwind uwtable
define linkonce_odr hidden void @_ZN4llvm11raw_ostream5flushEv(ptr noundef nonnull align 8 dereferenceable(48) %0) #0 comdat align 2 {
  %2 = alloca ptr, align 8
  store ptr %0, ptr %2, align 8
  %3 = load ptr, ptr %2, align 8
  %4 = getelementptr inbounds nuw %"class.llvm::raw_ostream", ptr %3, i32 0, i32 4
  %5 = load ptr, ptr %4, align 8
  %6 = getelementptr inbounds nuw %"class.llvm::raw_ostream", ptr %3, i32 0, i32 2
  %7 = load ptr, ptr %6, align 8
  %8 = icmp ne ptr %5, %7
  br i1 %8, label %9, label %10

9:                                                ; preds = %1
  call void @_ZN4llvm11raw_ostream14flush_nonemptyEv(ptr noundef nonnull align 8 dereferenceable(48) %3)
  br label %10

10:                                               ; preds = %9, %1
  ret void
}

; Function Attrs: mustprogress nounwind uwtable
define linkonce_odr hidden void @_ZN4llvm11raw_ostream13SetUnbufferedEv(ptr noundef nonnull align 8 dereferenceable(48) %0) #0 comdat align 2 {
  %2 = alloca ptr, align 8
  store ptr %0, ptr %2, align 8
  %3 = load ptr, ptr %2, align 8
  call void @_ZN4llvm11raw_ostream5flushEv(ptr noundef nonnull align 8 dereferenceable(48) %3)
  call void @_ZN4llvm11raw_ostream16SetBufferAndModeEPcmNS0_10BufferKindE(ptr noundef nonnull align 8 dereferenceable(48) %3, ptr noundef null, i64 noundef 0, i32 noundef 0)
  ret void
}

; Function Attrs: mustprogress nounwind uwtable
define linkonce_odr hidden void @_ZN4llvm11raw_ostreamC2EbNS0_11OStreamKindE(ptr noundef nonnull align 8 dereferenceable(48) %0, i1 noundef zeroext %1, i32 noundef %2) unnamed_addr #0 comdat align 2 {
  %4 = alloca ptr, align 8
  %5 = alloca i8, align 1
  %6 = alloca i32, align 4
  store ptr %0, ptr %4, align 8
  %7 = zext i1 %1 to i8
  store i8 %7, ptr %5, align 1
  store i32 %2, ptr %6, align 4
  %8 = load ptr, ptr %4, align 8
  store ptr getelementptr inbounds inrange(-16, 104) ({ [15 x ptr] }, ptr @_ZTVN4llvm11raw_ostreamE, i32 0, i32 0, i32 2), ptr %8, align 8
  %9 = getelementptr inbounds nuw %"class.llvm::raw_ostream", ptr %8, i32 0, i32 1
  %10 = load i32, ptr %6, align 4
  store i32 %10, ptr %9, align 8
  %11 = getelementptr inbounds nuw %"class.llvm::raw_ostream", ptr %8, i32 0, i32 5
  store i8 0, ptr %11, align 8
  %12 = getelementptr inbounds nuw %"class.llvm::raw_ostream", ptr %8, i32 0, i32 6
  %13 = load i8, ptr %5, align 1
  %14 = trunc i8 %13 to i1
  %15 = select i1 %14, i32 0, i32 1
  store i32 %15, ptr %12, align 4
  %16 = getelementptr inbounds nuw %"class.llvm::raw_ostream", ptr %8, i32 0, i32 4
  store ptr null, ptr %16, align 8
  %17 = getelementptr inbounds nuw %"class.llvm::raw_ostream", ptr %8, i32 0, i32 3
  store ptr null, ptr %17, align 8
  %18 = getelementptr inbounds nuw %"class.llvm::raw_ostream", ptr %8, i32 0, i32 2
  store ptr null, ptr %18, align 8
  ret void
}

; Function Attrs: mustprogress nounwind uwtable
define linkonce_odr hidden void @_ZN4llvm18raw_string_ostreamD2Ev(ptr noundef nonnull align 8 dereferenceable(56) %0) unnamed_addr #0 comdat align 2 {
  %2 = alloca ptr, align 8
  store ptr %0, ptr %2, align 8
  %3 = load ptr, ptr %2, align 8
  call void @_ZN4llvm11raw_ostreamD2Ev(ptr noundef nonnull align 8 dereferenceable(48) %3) #5
  ret void
}

; Function Attrs: mustprogress nounwind uwtable
define linkonce_odr hidden void @_ZN4llvm18raw_string_ostreamC2ERNSt7__cxx1112basic_stringIcSt11char_traitsIcESaIcEEE(ptr noundef nonnull align 8 dereferenceable(56) %0, ptr noundef nonnull align 8 dereferenceable(32) %1) unnamed_addr #0 comdat align 2 {
  %3 = alloca ptr, align 8
  %4 = alloca ptr, align 8
  store ptr %0, ptr %3, align 8
  store ptr %1, ptr %4, align 8
  %5 = load ptr, ptr %3, align 8
  call void @_ZN4llvm11raw_ostreamC2EbNS0_11OStreamKindE(ptr noundef nonnull align 8 dereferenceable(48) %5, i1 noundef zeroext false, i32 noundef 0)
  store ptr getelementptr inbounds inrange(-16, 104) ({ [15 x ptr] }, ptr @_ZTVN4llvm18raw_string_ostreamE, i32 0, i32 0, i32 2), ptr %5, align 8
  %6 = getelementptr inbounds nuw %"class.llvm::raw_string_ostream", ptr %5, i32 0, i32 1
  %7 = load ptr, ptr %4, align 8
  store ptr %7, ptr %6, align 8
  call void @_ZN4llvm11raw_ostream13SetUnbufferedEv(ptr noundef nonnull align 8 dereferenceable(48) %5)
  ret void
}

; Function Attrs: mustprogress nounwind uwtable
define linkonce_odr hidden void @_ZN4llvm14DOTGraphTraitsIPNS_12SelectionDAGEE18getSimpleNodeLabelB5cxx11EPKNS_6SDNodeEPKS1_(ptr dead_on_unwind noalias writable sret(%"class.std::__cxx11::basic_string") align 8 %0, ptr noundef %1, ptr noundef %2) #0 comdat align 2 {
  %4 = alloca ptr, align 8
  %5 = alloca ptr, align 8
  %6 = alloca ptr, align 8
  %7 = alloca i1, align 1
  %8 = alloca %"class.llvm::raw_string_ostream", align 8
  store ptr %0, ptr %4, align 8
  store ptr %1, ptr %5, align 8
  store ptr %2, ptr %6, align 8
  store i1 false, ptr %7, align 1
  %9 = load ptr, ptr %5, align 8
  %10 = load ptr, ptr %6, align 8
  call void @_ZNK4llvm6SDNode16getOperationNameB5cxx11EPKNS_12SelectionDAGE(ptr dead_on_unwind writable sret(%"class.std::__cxx11::basic_string") align 8 %0, ptr noundef nonnull align 8 dereferenceable(88) %9, ptr noundef %10)
  call void @_ZN4llvm18raw_string_ostreamC2ERNSt7__cxx1112basic_stringIcSt11char_traitsIcESaIcEEE(ptr noundef nonnull align 8 dereferenceable(56) %8, ptr noundef nonnull align 8 dereferenceable(32) %0)
  %11 = load ptr, ptr %5, align 8
  %12 = load ptr, ptr %6, align 8
  call void @_ZNK4llvm6SDNode13print_detailsERNS_11raw_ostreamEPKNS_12SelectionDAGE(ptr noundef nonnull align 8 dereferenceable(88) %11, ptr noundef nonnull align 8 dereferenceable(48) %8, ptr noundef %12)
  call void @_ZN4llvm18raw_string_ostreamD2Ev(ptr noundef nonnull align 8 dereferenceable(56) %8) #5
  store i1 true, ptr %7, align 1
  %13 = load i1, ptr %7, align 1
  br i1 %13, label %15, label %14

14:                                               ; preds = %3
  call void @_ZNSt7__cxx1112basic_stringIcSt11char_traitsIcESaIcEED1Ev(ptr noundef nonnull align 8 dereferenceable(32) %0) #5
  br label %15

15:                                               ; preds = %14, %3
  ret void
}

; Function Attrs: mustprogress nounwind uwtable
define dso_local void @_ZN4llvm14DOTGraphTraitsIPNS_12SelectionDAGEE12getNodeLabelB5cxx11EPKNS_6SDNodeEPKS1_(ptr dead_on_unwind noalias writable sret(%"class.std::__cxx11::basic_string") align 8 %0, ptr noundef nonnull align 1 dereferenceable(1) %1, ptr noundef %2, ptr noundef %3) #0 align 2 {
  %5 = alloca ptr, align 8
  %6 = alloca ptr, align 8
  %7 = alloca ptr, align 8
  %8 = alloca ptr, align 8
  store ptr %0, ptr %5, align 8
  store ptr %1, ptr %6, align 8
  store ptr %2, ptr %7, align 8
  store ptr %3, ptr %8, align 8
  %9 = load ptr, ptr %7, align 8
  %10 = load ptr, ptr %8, align 8
  call void @_ZN4llvm14DOTGraphTraitsIPNS_12SelectionDAGEE18getSimpleNodeLabelB5cxx11EPKNS_6SDNodeEPKS1_(ptr dead_on_unwind writable sret(%"class.std::__cxx11::basic_string") align 8 %0, ptr noundef %9, ptr noundef %10)
  ret void
}