; Function Attrs: mustprogress nounwind uwtable
define dso_local void @_ZN4llvm14DOTGraphTraitsIPNS_12SelectionDAGEE12getNodeLabelB5cxx11EPKNS_6SDNodeEPKS1_(ptr dead_on_unwind noalias writable sret(%"class.std::__cxx11::basic_string") align 8 %0, ptr nocapture noundef nonnull readnone align 1 dereferenceable(1) %1, ptr noundef nonnull %2, ptr noundef %3) local_unnamed_addr #0 align 2 {
  %5 = alloca %"class.llvm::raw_string_ostream", align 8
  call void @llvm.lifetime.start.p0(i64 56, ptr nonnull %5)
  tail call void @_ZNK4llvm6SDNode16getOperationNameB5cxx11EPKNS_12SelectionDAGE(ptr dead_on_unwind writable sret(%"class.std::__cxx11::basic_string") align 8 %0, ptr noundef nonnull align 8 dereferenceable(88) %2, ptr noundef %3) #7
  %6 = getelementptr inbounds nuw i8, ptr %5, i64 8
  store i32 0, ptr %6, align 8, !noalias !4
  %7 = getelementptr inbounds nuw i8, ptr %5, i64 40
  store i8 0, ptr %7, align 8, !noalias !4
  %8 = getelementptr inbounds nuw i8, ptr %5, i64 44
  store i32 1, ptr %8, align 4, !noalias !4
  %9 = getelementptr inbounds nuw i8, ptr %5, i64 16
  call void @llvm.memset.p0.i64(ptr noundef nonnull align 8 dereferenceable(24) %9, i8 0, i64 24, i1 false), !noalias !4
  store ptr getelementptr inbounds inrange(-16, 104) (i8, ptr @_ZTVN4llvm18raw_string_ostreamE, i64 16), ptr %5, align 8, !noalias !4
  %10 = getelementptr inbounds nuw i8, ptr %5, i64 48
  store ptr %0, ptr %10, align 8, !noalias !4
  call void @_ZN4llvm11raw_ostream16SetBufferAndModeEPcmNS0_10BufferKindE(ptr noundef nonnull align 8 dereferenceable(48) %5, ptr noundef null, i64 noundef 0, i32 noundef 0) #7
  call void @_ZNK4llvm6SDNode13print_detailsERNS_11raw_ostreamEPKNS_12SelectionDAGE(ptr noundef nonnull align 8 dereferenceable(88) %2, ptr noundef nonnull align 8 dereferenceable(48) %5, ptr noundef %3) #7
  call void @_ZN4llvm11raw_ostreamD2Ev(ptr noundef nonnull align 8 dereferenceable(48) %5) #7
  call void @llvm.lifetime.end.p0(i64 56, ptr nonnull %5)
  ret void
}